target datalayout = "e-m:e-p270:32:32-p271:32:32-p272:64:64-i64:64-i128:128-f80:128-n8:16:32:64-S128"
target triple = "x86_64-pc-linux-gnu"

%struct.Node = type { i32 }
%struct.Expr = type { i32 }
%struct.JsonAggConstructor = type { i32, ptr, ptr, ptr, ptr, i32 }
%struct.WindowFunc = type { %struct.Expr, i32, i32, i32, i32, ptr, ptr, ptr, i32, i8, i8, i32 }
%struct.Aggref = type { %struct.Expr, i32, i32, i32, i32, i32, ptr, ptr, ptr, ptr, ptr, ptr, i8, i8, i8, i8, i32, i32, i32, i32, i32 }

@.str.9 = private unnamed_addr constant [7 x i8] c"FILTER\00", align 1
@.str.41 = private unnamed_addr constant [13 x i8] c"parse_expr.c\00", align 1
@.str.153 = private unnamed_addr constant [59 x i8] c"aggregate ORDER BY is not implemented for window functions\00", align 1
@__func__.transformJsonAggConstructor = private unnamed_addr constant [28 x i8] c"transformJsonAggConstructor\00", align 1

; Function Attrs: inlinehint nounwind uwtable
define internal ptr @newNode(i64 noundef %0, i32 noundef %1) #4 {
  %3 = alloca i64, align 8
  %4 = alloca i32, align 4
  %5 = alloca ptr, align 8
  store i64 %0, ptr %3, align 8
  store i32 %1, ptr %4, align 4
  call void @llvm.lifetime.start.p0(i64 8, ptr %5) #8
  %6 = load i64, ptr %3, align 8
  %7 = call ptr @palloc0(i64 noundef %6)
  store ptr %7, ptr %5, align 8
  %8 = load i32, ptr %4, align 4
  %9 = load ptr, ptr %5, align 8
  %10 = getelementptr inbounds nuw %struct.Node, ptr %9, i32 0, i32 0
  store i32 %8, ptr %10, align 4
  %11 = load ptr, ptr %5, align 8
  call void @llvm.lifetime.end.p0(i64 8, ptr %5) #8
  ret ptr %11
}

; Function Attrs: nounwind uwtable
define internal ptr @transformJsonAggConstructor(ptr noundef %0, ptr noundef %1, ptr noundef %2, ptr noundef %3, i32 noundef %4, i32 noundef %5, i32 noundef %6, i1 noundef zeroext %7, i1 noundef zeroext %8) #0 {
  %10 = alloca ptr, align 8
  %11 = alloca ptr, align 8
  %12 = alloca ptr, align 8
  %13 = alloca ptr, align 8
  %14 = alloca i32, align 4
  %15 = alloca i32, align 4
  %16 = alloca i32, align 4
  %17 = alloca i8, align 1
  %18 = alloca i8, align 1
  %19 = alloca ptr, align 8
  %20 = alloca ptr, align 8
  %21 = alloca ptr, align 8
  %22 = alloca ptr, align 8
  store ptr %0, ptr %10, align 8
  store ptr %1, ptr %11, align 8
  store ptr %2, ptr %12, align 8
  store ptr %3, ptr %13, align 8
  store i32 %4, ptr %14, align 4
  store i32 %5, ptr %15, align 4
  store i32 %6, ptr %16, align 4
  %23 = zext i1 %7 to i8
  store i8 %23, ptr %17, align 1
  %24 = zext i1 %8 to i8
  store i8 %24, ptr %18, align 1
  call void @llvm.lifetime.start.p0(i64 8, ptr %19) #8
  call void @llvm.lifetime.start.p0(i64 8, ptr %20) #8
  %25 = load ptr, ptr %11, align 8
  %26 = getelementptr inbounds nuw %struct.JsonAggConstructor, ptr %25, i32 0, i32 2
  %27 = load ptr, ptr %26, align 8
  %28 = icmp ne ptr %27, null
  br i1 %28, label %29, label %35

29:                                               ; preds = %9
  %30 = load ptr, ptr %10, align 8
  %31 = load ptr, ptr %11, align 8
  %32 = getelementptr inbounds nuw %struct.JsonAggConstructor, ptr %31, i32 0, i32 2
  %33 = load ptr, ptr %32, align 8
  %34 = call ptr @transformWhereClause(ptr noundef %30, ptr noundef %33, i32 noundef 8, ptr noundef @.str.9)
  br label %36

35:                                               ; preds = %9
  br label %36

36:                                               ; preds = %35, %29
  %37 = phi ptr [ %34, %29 ], [ null, %35 ]
  store ptr %37, ptr %20, align 8
  %38 = load ptr, ptr %11, align 8
  %39 = getelementptr inbounds nuw %struct.JsonAggConstructor, ptr %38, i32 0, i32 4
  %40 = load ptr, ptr %39, align 8
  %41 = icmp ne ptr %40, null
  br i1 %41, label %42, label %95

42:                                               ; preds = %36
  call void @llvm.lifetime.start.p0(i64 8, ptr %21) #8
  %43 = call ptr @newNode(i64 noundef 64, i32 noundef 11)
  store ptr %43, ptr %21, align 8
  %44 = load i32, ptr %14, align 4
  %45 = load ptr, ptr %21, align 8
  %46 = getelementptr inbounds nuw %struct.WindowFunc, ptr %45, i32 0, i32 1
  store i32 %44, ptr %46, align 4
  %47 = load i32, ptr %15, align 4
  %48 = load ptr, ptr %21, align 8
  %49 = getelementptr inbounds nuw %struct.WindowFunc, ptr %48, i32 0, i32 2
  store i32 %47, ptr %49, align 8
  %50 = load ptr, ptr %13, align 8
  %51 = load ptr, ptr %21, align 8
  %52 = getelementptr inbounds nuw %struct.WindowFunc, ptr %51, i32 0, i32 5
  store ptr %50, ptr %52, align 8
  %53 = load ptr, ptr %20, align 8
  %54 = load ptr, ptr %21, align 8
  %55 = getelementptr inbounds nuw %struct.WindowFunc, ptr %54, i32 0, i32 6
  store ptr %53, ptr %55, align 8
  %56 = load ptr, ptr %21, align 8
  %57 = getelementptr inbounds nuw %struct.WindowFunc, ptr %56, i32 0, i32 7
  store ptr null, ptr %57, align 8
  %58 = load ptr, ptr %21, align 8
  %59 = getelementptr inbounds nuw %struct.WindowFunc, ptr %58, i32 0, i32 9
  store i8 0, ptr %59, align 4
  %60 = load ptr, ptr %21, align 8
  %61 = getelementptr inbounds nuw %struct.WindowFunc, ptr %60, i32 0, i32 10
  store i8 1, ptr %61, align 1
  %62 = load ptr, ptr %11, align 8
  %63 = getelementptr inbounds nuw %struct.JsonAggConstructor, ptr %62, i32 0, i32 5
  %64 = load i32, ptr %63, align 8
  %65 = load ptr, ptr %21, align 8
  %66 = getelementptr inbounds nuw %struct.WindowFunc, ptr %65, i32 0, i32 11
  store i32 %64, ptr %66, align 8
  %67 = load ptr, ptr %11, align 8
  %68 = getelementptr inbounds nuw %struct.JsonAggConstructor, ptr %67, i32 0, i32 3
  %69 = load ptr, ptr %68, align 8
  %70 = icmp ne ptr %69, null
  br i1 %70, label %71, label %88

71:                                               ; preds = %42
  br label %72

72:                                               ; preds = %71
  br i1 true, label %73, label %75

73:                                               ; preds = %72
  %74 = call zeroext i1 @errstart_cold(i32 noundef 21, ptr noundef null) #9
  br i1 %74, label %77, label %85

75:                                               ; preds = %72
  %76 = call zeroext i1 @errstart(i32 noundef 21, ptr noundef null)
  br i1 %76, label %77, label %85

77:                                               ; preds = %75, %73
  %78 = call i32 @errcode(i32 noundef 1088)
  %79 = call i32 (ptr, ...) @errmsg(ptr noundef @.str.153)
  %80 = load ptr, ptr %10, align 8
  %81 = load ptr, ptr %11, align 8
  %82 = getelementptr inbounds nuw %struct.JsonAggConstructor, ptr %81, i32 0, i32 5
  %83 = load i32, ptr %82, align 8
  %84 = call i32 @parser_errposition(ptr noundef %80, i32 noundef %83)
  call void @errfinish(ptr noundef @.str.41, i32 noundef 3858, ptr noundef @__func__.transformJsonAggConstructor)
  br label %85

85:                                               ; preds = %77, %75, %73
  unreachable

86:                                               ; No predecessors!
  br label %87

87:                                               ; preds = %86
  br label %88

88:                                               ; preds = %87, %42
  %89 = load ptr, ptr %10, align 8
  %90 = load ptr, ptr %21, align 8
  %91 = load ptr, ptr %11, align 8
  %92 = getelementptr inbounds nuw %struct.JsonAggConstructor, ptr %91, i32 0, i32 4
  %93 = load ptr, ptr %92, align 8
  call void @transformWindowFuncCall(ptr noundef %89, ptr noundef %90, ptr noundef %93)
  %94 = load ptr, ptr %21, align 8
  store ptr %94, ptr %19, align 8
  call void @llvm.lifetime.end.p0(i64 8, ptr %21) #8
  br label %132

95:                                               ; preds = %36
  call void @llvm.lifetime.start.p0(i64 8, ptr %22) #8
  %96 = call ptr @newNode(i64 noundef 96, i32 noundef 9)
  store ptr %96, ptr %22, align 8
  %97 = load i32, ptr %14, align 4
  %98 = load ptr, ptr %22, align 8
  %99 = getelementptr inbounds nuw %struct.Aggref, ptr %98, i32 0, i32 1
  store i32 %97, ptr %99, align 4
  %100 = load i32, ptr %15, align 4
  %101 = load ptr, ptr %22, align 8
  %102 = getelementptr inbounds nuw %struct.Aggref, ptr %101, i32 0, i32 2
  store i32 %100, ptr %102, align 8
  %103 = load ptr, ptr %20, align 8
  %104 = load ptr, ptr %22, align 8
  %105 = getelementptr inbounds nuw %struct.Aggref, ptr %104, i32 0, i32 11
  store ptr %103, ptr %105, align 8
  %106 = load ptr, ptr %22, align 8
  %107 = getelementptr inbounds nuw %struct.Aggref, ptr %106, i32 0, i32 12
  store i8 0, ptr %107, align 8
  %108 = load ptr, ptr %22, align 8
  %109 = getelementptr inbounds nuw %struct.Aggref, ptr %108, i32 0, i32 13
  store i8 0, ptr %109, align 1
  %110 = load ptr, ptr %22, align 8
  %111 = getelementptr inbounds nuw %struct.Aggref, ptr %110, i32 0, i32 14
  store i8 110, ptr %111, align 2
  %112 = load ptr, ptr %22, align 8
  %113 = getelementptr inbounds nuw %struct.Aggref, ptr %112, i32 0, i32 15
  store i8 0, ptr %113, align 1
  %114 = load ptr, ptr %22, align 8
  %115 = getelementptr inbounds nuw %struct.Aggref, ptr %114, i32 0, i32 17
  store i32 0, ptr %115, align 8
  %116 = load ptr, ptr %22, align 8
  %117 = getelementptr inbounds nuw %struct.Aggref, ptr %116, i32 0, i32 18
  store i32 -1, ptr %117, align 4
  %118 = load ptr, ptr %22, align 8
  %119 = getelementptr inbounds nuw %struct.Aggref, ptr %118, i32 0, i32 19
  store i32 -1, ptr %119, align 8
  %120 = load ptr, ptr %11, align 8
  %121 = getelementptr inbounds nuw %struct.JsonAggConstructor, ptr %120, i32 0, i32 5
  %122 = load i32, ptr %121, align 8
  %123 = load ptr, ptr %22, align 8
  %124 = getelementptr inbounds nuw %struct.Aggref, ptr %123, i32 0, i32 20
  store i32 %122, ptr %124, align 4
  %125 = load ptr, ptr %10, align 8
  %126 = load ptr, ptr %22, align 8
  %127 = load ptr, ptr %13, align 8
  %128 = load ptr, ptr %11, align 8
  %129 = getelementptr inbounds nuw %struct.JsonAggConstructor, ptr %128, i32 0, i32 3
  %130 = load ptr, ptr %129, align 8
  call void @transformAggregateCall(ptr noundef %125, ptr noundef %126, ptr noundef %127, ptr noundef %130, i1 noundef zeroext false)
  %131 = load ptr, ptr %22, align 8
  store ptr %131, ptr %19, align 8
  call void @llvm.lifetime.end.p0(i64 8, ptr %22) #8
  br label %132

132:                                              ; preds = %95, %88
  %133 = load ptr, ptr %10, align 8
  %134 = load i32, ptr %16, align 4
  %135 = load ptr, ptr %19, align 8
  %136 = load ptr, ptr %12, align 8
  %137 = load i8, ptr %17, align 1, !range !6, !noundef !7
  %138 = trunc i8 %137 to i1
  %139 = load i8, ptr %18, align 1, !range !6, !noundef !7
  %140 = trunc i8 %139 to i1
  %141 = load ptr, ptr %11, align 8
  %142 = getelementptr inbounds nuw %struct.JsonAggConstructor, ptr %141, i32 0, i32 5
  %143 = load i32, ptr %142, align 8
  %144 = call ptr @makeJsonConstructorExpr(ptr noundef %133, i32 noundef %134, ptr noundef null, ptr noundef %135, ptr noundef %136, i1 noundef zeroext %138, i1 noundef zeroext %140, i32 noundef %143)
  call void @llvm.lifetime.end.p0(i64 8, ptr %20) #8
  call void @llvm.lifetime.end.p0(i64 8, ptr %19) #8
  ret ptr %144
}