; Function Attrs: nounwind uwtable
define internal fastcc noundef ptr @transformJsonAggConstructor(ptr noundef %0, ptr noundef readonly captures(none) %1, ptr noundef %2, ptr noundef %3, i32 noundef range(i32 3175, 6291) %4, i32 noundef range(i32 114, 3803) %5, i32 noundef range(i32 3, 5) %6, i1 noundef zeroext %7, i1 noundef zeroext %8) unnamed_addr #0 {
  %10 = getelementptr inbounds nuw i8, ptr %1, i64 16
  %11 = load ptr, ptr %10, align 8
  %.not = icmp eq ptr %11, null
  br i1 %.not, label %14, label %12

12:                                               ; preds = %9
  %13 = tail call ptr @transformWhereClause(ptr noundef %0, ptr noundef nonnull %11, i32 noundef 8, ptr noundef nonnull @.str.9) #9
  br label %14

14:                                               ; preds = %9, %12
  %15 = phi ptr [ %13, %12 ], [ null, %9 ]
  %16 = getelementptr inbounds nuw i8, ptr %1, i64 32
  %17 = load ptr, ptr %16, align 8
  %.not51 = icmp eq ptr %17, null
  br i1 %.not51, label %40, label %18

18:                                               ; preds = %14
  %19 = tail call noundef ptr @palloc0(i64 noundef 64) #9
  store i32 11, ptr %19, align 4
  %20 = getelementptr inbounds nuw i8, ptr %19, i64 4
  store i32 %4, ptr %20, align 4
  %21 = getelementptr inbounds nuw i8, ptr %19, i64 8
  store i32 %5, ptr %21, align 8
  %22 = getelementptr inbounds nuw i8, ptr %19, i64 24
  store ptr %3, ptr %22, align 8
  %23 = getelementptr inbounds nuw i8, ptr %19, i64 32
  store ptr %15, ptr %23, align 8
  %24 = getelementptr inbounds nuw i8, ptr %19, i64 40
  store ptr null, ptr %24, align 8
  %25 = getelementptr inbounds nuw i8, ptr %19, i64 52
  store i8 0, ptr %25, align 4
  %26 = getelementptr inbounds nuw i8, ptr %19, i64 53
  store i8 1, ptr %26, align 1
  %27 = getelementptr inbounds nuw i8, ptr %1, i64 40
  %28 = load i32, ptr %27, align 8
  %29 = getelementptr inbounds nuw i8, ptr %19, i64 56
  store i32 %28, ptr %29, align 8
  %30 = getelementptr inbounds nuw i8, ptr %1, i64 24
  %31 = load ptr, ptr %30, align 8
  %.not52 = icmp eq ptr %31, null
  br i1 %.not52, label %38, label %32

32:                                               ; preds = %18
  %33 = tail call zeroext i1 @errstart_cold(i32 noundef 21, ptr noundef null) #10
  tail call void @llvm.assume(i1 %33)
  %34 = tail call i32 @errcode(i32 noundef 1088) #9
  %35 = tail call i32 (ptr, ...) @errmsg(ptr noundef nonnull @.str.153) #9
  %36 = load i32, ptr %27, align 8
  %37 = tail call i32 @parser_errposition(ptr noundef %0, i32 noundef %36) #9
  tail call void @errfinish(ptr noundef nonnull @.str.41, i32 noundef 3858, ptr noundef nonnull @__func__.transformJsonAggConstructor) #9
  unreachable

38:                                               ; preds = %18
  %39 = load ptr, ptr %16, align 8
  tail call void @transformWindowFuncCall(ptr noundef %0, ptr noundef nonnull %19, ptr noundef %39) #9
  br label %57

40:                                               ; preds = %14
  %41 = tail call noundef ptr @palloc0(i64 noundef 96) #9
  store i32 9, ptr %41, align 4
  %42 = getelementptr inbounds nuw i8, ptr %41, i64 4
  store i32 %4, ptr %42, align 4
  %43 = getelementptr inbounds nuw i8, ptr %41, i64 8
  store i32 %5, ptr %43, align 8
  %44 = getelementptr inbounds nuw i8, ptr %41, i64 64
  store ptr %15, ptr %44, align 8
  %45 = getelementptr inbounds nuw i8, ptr %41, i64 72
  store i8 0, ptr %45, align 8
  %46 = getelementptr inbounds nuw i8, ptr %41, i64 73
  store i8 0, ptr %46, align 1
  %47 = getelementptr inbounds nuw i8, ptr %41, i64 74
  store i8 110, ptr %47, align 2
  %48 = getelementptr inbounds nuw i8, ptr %41, i64 75
  store i8 0, ptr %48, align 1
  %49 = getelementptr inbounds nuw i8, ptr %41, i64 80
  store i32 0, ptr %49, align 8
  %50 = getelementptr inbounds nuw i8, ptr %41, i64 84
  store i32 -1, ptr %50, align 4
  %51 = getelementptr inbounds nuw i8, ptr %41, i64 88
  store i32 -1, ptr %51, align 8
  %52 = getelementptr inbounds nuw i8, ptr %1, i64 40
  %53 = load i32, ptr %52, align 8
  %54 = getelementptr inbounds nuw i8, ptr %41, i64 92
  store i32 %53, ptr %54, align 4
  %55 = getelementptr inbounds nuw i8, ptr %1, i64 24
  %56 = load ptr, ptr %55, align 8
  tail call void @transformAggregateCall(ptr noundef %0, ptr noundef nonnull %41, ptr noundef %3, ptr noundef %56, i1 noundef zeroext false) #9
  br label %57

57:                                               ; preds = %40, %38
  %.0 = phi ptr [ %19, %38 ], [ %41, %40 ]
  %58 = getelementptr inbounds nuw i8, ptr %1, i64 40
  %59 = load i32, ptr %58, align 8
  %60 = tail call fastcc ptr @makeJsonConstructorExpr(ptr noundef %0, i32 noundef %6, ptr noundef null, ptr noundef nonnull %.0, ptr noundef %2, i1 noundef zeroext %7, i1 noundef zeroext %8, i32 noundef %59)
  ret ptr %60
}